; ModuleID = 'source-C-CXX/0/17.c'
source_filename = "source-C-CXX/0/17.c"
target datalayout = "e-m:e-p270:32:32-p271:32:32-p272:64:64-i64:64-f80:128-n8:16:32:64-S128"
target triple = "x86_64-pc-linux-gnu"

@.str = private unnamed_addr constant [3 x i8] c"%d\00", align 1
@.str.1 = private unnamed_addr constant [4 x i8] c"%d\0A\00", align 1

; Function Attrs: nofree nosync nounwind readnone sspstrong uwtable
define dso_local i32 @fun(i32 %0, i32 %1) local_unnamed_addr #0 {
  %3 = mul nsw i32 %0, %0
  %4 = icmp sgt i32 %3, %1
  br i1 %4, label %20, label %5

5:                                                ; preds = %2, %15
  %6 = phi i32 [ %16, %15 ], [ 0, %2 ]
  %7 = phi i32 [ %17, %15 ], [ %0, %2 ]
  %8 = srem i32 %1, %7
  %9 = sdiv i32 %1, %7
  %10 = icmp eq i32 %8, 0
  br i1 %10, label %11, label %15

11:                                               ; preds = %5
  %12 = add nsw i32 %6, 1
  %13 = tail call i32 @fun(i32 %7, i32 %9)
  %14 = add nsw i32 %12, %13
  br label %15

15:                                               ; preds = %5, %11
  %16 = phi i32 [ %14, %11 ], [ %6, %5 ]
  %17 = add nsw i32 %7, 1
  %18 = mul nsw i32 %17, %17
  %19 = icmp sgt i32 %18, %1
  br i1 %19, label %20, label %5, !llvm.loop !5

20:                                               ; preds = %15, %2
  %21 = phi i32 [ 0, %2 ], [ %16, %15 ]
  ret i32 %21
}

; Function Attrs: argmemonly mustprogress nofree nosync nounwind willreturn
declare void @llvm.lifetime.start.p0i8(i64 immarg, i8* nocapture) #1

; Function Attrs: argmemonly mustprogress nofree nosync nounwind willreturn
declare void @llvm.lifetime.end.p0i8(i64 immarg, i8* nocapture) #1

; Function Attrs: nofree nounwind sspstrong uwtable
define dso_local i32 @main() local_unnamed_addr #2 {
  %1 = alloca i32, align 4
  %2 = alloca i32, align 4
  %3 = bitcast i32* %1 to i8*
  call void @llvm.lifetime.start.p0i8(i64 4, i8* nonnull %3) #4
  %4 = bitcast i32* %2 to i8*
  call void @llvm.lifetime.start.p0i8(i64 4, i8* nonnull %4) #4
  %5 = call i32 (i8*, ...) @__isoc99_scanf(i8* getelementptr inbounds ([3 x i8], [3 x i8]* @.str, i64 0, i64 0), i32* nonnull %1)
  %6 = load i32, i32* %1, align 4, !tbaa !7
  %7 = icmp sgt i32 %6, 0
  br i1 %7, label %8, label %18

8:                                                ; preds = %0, %8
  %9 = phi i32 [ %16, %8 ], [ %6, %0 ]
  %10 = add nsw i32 %9, -1
  store i32 %10, i32* %1, align 4, !tbaa !7
  %11 = call i32 (i8*, ...) @__isoc99_scanf(i8* getelementptr inbounds ([3 x i8], [3 x i8]* @.str, i64 0, i64 0), i32* nonnull %2)
  %12 = load i32, i32* %2, align 4, !tbaa !7
  %13 = call i32 @fun(i32 2, i32 %12)
  %14 = add nsw i32 %13, 1
  %15 = call i32 (i8*, ...) @printf(i8* nonnull dereferenceable(1) getelementptr inbounds ([4 x i8], [4 x i8]* @.str.1, i64 0, i64 0), i32 %14)
  %16 = load i32, i32* %1, align 4, !tbaa !7
  %17 = icmp sgt i32 %16, 0
  br i1 %17, label %8, label %18, !llvm.loop !11

18:                                               ; preds = %8, %0
  call void @llvm.lifetime.end.p0i8(i64 4, i8* nonnull %4) #4
  call void @llvm.lifetime.end.p0i8(i64 4, i8* nonnull %3) #4
  ret i32 0
}

; Function Attrs: nofree nounwind
declare noundef i32 @__isoc99_scanf(i8* nocapture noundef readonly, ...) local_unnamed_addr #3

; Function Attrs: nofree nounwind
declare noundef i32 @printf(i8* nocapture noundef readonly, ...) local_unnamed_addr #3


!llvm.module.flags = !{!0, !1, !2, !3}
!llvm.ident = !{!4}

!0 = !{i32 1, !"wchar_size", i32 4}
!1 = !{i32 7, !"PIC Level", i32 2}
!2 = !{i32 7, !"PIE Level", i32 2}
!3 = !{i32 7, !"uwtable", i32 1}
!4 = !{!"clang version 13.0.0"}
!5 = distinct !{!5, !6}
!6 = !{!"llvm.loop.mustprogress"}
!7 = !{!8, !8, i64 0}
!8 = !{!"int", !9, i64 0}
!9 = !{!"omnipotent char", !10, i64 0}
!10 = !{!"Simple C/C++ TBAA"}
!11 = distinct !{!11, !6}
